target datalayout = "e-m:e-p270:32:32-p271:32:32-p272:64:64-i64:64-i128:128-f80:128-n8:16:32:64-S128"
target triple = "x86_64-pc-linux-gnu"

%struct.varatt_indirect = type { ptr }
%struct.varattrib_1b = type { i8, [0 x i8] }
%struct.varattrib_1b_e = type { i8, i8, [0 x i8] }
%struct.anon = type { i32, [0 x i8] }
%struct.varatt_external = type { i32, i32, i32, i32 }
%struct.anon.0 = type { i32, i32, [0 x i8] }

; Function Attrs: inlinehint nounwind uwtable
define internal i64 @PointerGetDatum(ptr noundef %0) #4 {
  %2 = alloca ptr, align 8
  store ptr %0, ptr %2, align 8
  %3 = load ptr, ptr %2, align 8
  %4 = ptrtoint ptr %3 to i64
  ret i64 %4
}

; Function Attrs: inlinehint nounwind uwtable
define internal ptr @DatumGetPointer(i64 noundef %0) #4 {
  %2 = alloca i64, align 8
  store i64 %0, ptr %2, align 8
  %3 = load i64, ptr %2, align 8
  %4 = inttoptr i64 %3 to ptr
  ret ptr %4
}

; Function Attrs: nounwind uwtable
define dso_local i64 @toast_raw_datum_size(i64 noundef %0) #0 {
  %2 = alloca i64, align 8
  %3 = alloca i64, align 8
  %4 = alloca ptr, align 8
  %5 = alloca i64, align 8
  %6 = alloca %struct.varatt_external, align 4
  %7 = alloca ptr, align 8
  %8 = alloca %struct.varatt_indirect, align 8
  %9 = alloca ptr, align 8
  %10 = alloca i32, align 4
  store i64 %0, ptr %3, align 8
  call void @llvm.lifetime.start.p0(i64 8, ptr %4) #7
  %11 = load i64, ptr %3, align 8
  %12 = call ptr @DatumGetPointer(i64 noundef %11)
  store ptr %12, ptr %4, align 8
  call void @llvm.lifetime.start.p0(i64 8, ptr %5) #7
  %13 = load ptr, ptr %4, align 8
  %14 = getelementptr inbounds nuw %struct.varattrib_1b, ptr %13, i32 0, i32 0
  %15 = load i8, ptr %14, align 1
  %16 = zext i8 %15 to i32
  %17 = icmp eq i32 %16, 1
  br i1 %17, label %18, label %35

18:                                               ; preds = %1
  %19 = load ptr, ptr %4, align 8
  %20 = getelementptr inbounds nuw %struct.varattrib_1b_e, ptr %19, i32 0, i32 1
  %21 = load i8, ptr %20, align 1
  %22 = zext i8 %21 to i32
  %23 = icmp eq i32 %22, 18
  br i1 %23, label %24, label %35

24:                                               ; preds = %18
  call void @llvm.lifetime.start.p0(i64 16, ptr %6) #7
  br label %25

25:                                               ; preds = %24
  call void @llvm.lifetime.start.p0(i64 8, ptr %7) #7
  %26 = load ptr, ptr %4, align 8
  store ptr %26, ptr %7, align 8
  %27 = load ptr, ptr %7, align 8
  %28 = getelementptr inbounds nuw %struct.varattrib_1b_e, ptr %27, i32 0, i32 2
  %29 = getelementptr inbounds [0 x i8], ptr %28, i64 0, i64 0
  call void @llvm.memcpy.p0.p0.i64(ptr align 4 %6, ptr align 1 %29, i64 16, i1 false)
  call void @llvm.lifetime.end.p0(i64 8, ptr %7) #7
  br label %30

30:                                               ; preds = %25
  br label %31

31:                                               ; preds = %30
  %32 = getelementptr inbounds nuw %struct.varatt_external, ptr %6, i32 0, i32 0
  %33 = load i32, ptr %32, align 4
  %34 = sext i32 %33 to i64
  store i64 %34, ptr %5, align 8
  call void @llvm.lifetime.end.p0(i64 16, ptr %6) #7
  br label %118

35:                                               ; preds = %18, %1
  %36 = load ptr, ptr %4, align 8
  %37 = getelementptr inbounds nuw %struct.varattrib_1b, ptr %36, i32 0, i32 0
  %38 = load i8, ptr %37, align 1
  %39 = zext i8 %38 to i32
  %40 = icmp eq i32 %39, 1
  br i1 %40, label %41, label %59

41:                                               ; preds = %35
  %42 = load ptr, ptr %4, align 8
  %43 = getelementptr inbounds nuw %struct.varattrib_1b_e, ptr %42, i32 0, i32 1
  %44 = load i8, ptr %43, align 1
  %45 = zext i8 %44 to i32
  %46 = icmp eq i32 %45, 1
  br i1 %46, label %47, label %59

47:                                               ; preds = %41
  call void @llvm.lifetime.start.p0(i64 8, ptr %8) #7
  br label %48

48:                                               ; preds = %47
  call void @llvm.lifetime.start.p0(i64 8, ptr %9) #7
  %49 = load ptr, ptr %4, align 8
  store ptr %49, ptr %9, align 8
  %50 = load ptr, ptr %9, align 8
  %51 = getelementptr inbounds nuw %struct.varattrib_1b_e, ptr %50, i32 0, i32 2
  %52 = getelementptr inbounds [0 x i8], ptr %51, i64 0, i64 0
  call void @llvm.memcpy.p0.p0.i64(ptr align 8 %8, ptr align 1 %52, i64 8, i1 false)
  call void @llvm.lifetime.end.p0(i64 8, ptr %9) #7
  br label %53

53:                                               ; preds = %48
  br label %54

54:                                               ; preds = %53
  %55 = getelementptr inbounds nuw %struct.varatt_indirect, ptr %8, i32 0, i32 0
  %56 = load ptr, ptr %55, align 8
  %57 = call i64 @PointerGetDatum(ptr noundef %56)
  %58 = call i64 @toast_raw_datum_size(i64 noundef %57)
  store i64 %58, ptr %2, align 8
  store i32 1, ptr %10, align 4
  call void @llvm.lifetime.end.p0(i64 8, ptr %8) #7
  br label %120

59:                                               ; preds = %41, %35
  %60 = load ptr, ptr %4, align 8
  %61 = getelementptr inbounds nuw %struct.varattrib_1b, ptr %60, i32 0, i32 0
  %62 = load i8, ptr %61, align 1
  %63 = zext i8 %62 to i32
  %64 = icmp eq i32 %63, 1
  br i1 %64, label %65, label %76

65:                                               ; preds = %59
  %66 = load ptr, ptr %4, align 8
  %67 = getelementptr inbounds nuw %struct.varattrib_1b_e, ptr %66, i32 0, i32 1
  %68 = load i8, ptr %67, align 1
  %69 = zext i8 %68 to i32
  %70 = and i32 %69, -2
  %71 = icmp eq i32 %70, 2
  br i1 %71, label %72, label %76

72:                                               ; preds = %65
  %73 = load i64, ptr %3, align 8
  %74 = call ptr @DatumGetEOHP(i64 noundef %73)
  %75 = call i64 @EOH_get_flat_size(ptr noundef %74)
  store i64 %75, ptr %5, align 8
  br label %116

76:                                               ; preds = %65, %59
  %77 = load ptr, ptr %4, align 8
  %78 = getelementptr inbounds nuw %struct.varattrib_1b, ptr %77, i32 0, i32 0
  %79 = load i8, ptr %78, align 1
  %80 = zext i8 %79 to i32
  %81 = and i32 %80, 3
  %82 = icmp eq i32 %81, 2
  br i1 %82, label %83, label %90

83:                                               ; preds = %76
  %84 = load ptr, ptr %4, align 8
  %85 = getelementptr inbounds nuw %struct.anon.0, ptr %84, i32 0, i32 1
  %86 = load i32, ptr %85, align 4
  %87 = and i32 %86, 1073741823
  %88 = add i32 %87, 4
  %89 = zext i32 %88 to i64
  store i64 %89, ptr %5, align 8
  br label %115

90:                                               ; preds = %76
  %91 = load ptr, ptr %4, align 8
  %92 = getelementptr inbounds nuw %struct.varattrib_1b, ptr %91, i32 0, i32 0
  %93 = load i8, ptr %92, align 1
  %94 = zext i8 %93 to i32
  %95 = and i32 %94, 1
  %96 = icmp eq i32 %95, 1
  br i1 %96, label %97, label %107

97:                                               ; preds = %90
  %98 = load ptr, ptr %4, align 8
  %99 = getelementptr inbounds nuw %struct.varattrib_1b, ptr %98, i32 0, i32 0
  %100 = load i8, ptr %99, align 1
  %101 = zext i8 %100 to i32
  %102 = ashr i32 %101, 1
  %103 = and i32 %102, 127
  %104 = sext i32 %103 to i64
  %105 = sub i64 %104, 1
  %106 = add i64 %105, 4
  store i64 %106, ptr %5, align 8
  br label %114

107:                                              ; preds = %90
  %108 = load ptr, ptr %4, align 8
  %109 = getelementptr inbounds nuw %struct.anon, ptr %108, i32 0, i32 0
  %110 = load i32, ptr %109, align 4
  %111 = lshr i32 %110, 2
  %112 = and i32 %111, 1073741823
  %113 = zext i32 %112 to i64
  store i64 %113, ptr %5, align 8
  br label %114

114:                                              ; preds = %107, %97
  br label %115

115:                                              ; preds = %114, %83
  br label %116

116:                                              ; preds = %115, %72
  br label %117

117:                                              ; preds = %116
  br label %118

118:                                              ; preds = %117, %31
  %119 = load i64, ptr %5, align 8
  store i64 %119, ptr %2, align 8
  store i32 1, ptr %10, align 4
  br label %120

120:                                              ; preds = %118, %54
  call void @llvm.lifetime.end.p0(i64 8, ptr %5) #7
  call void @llvm.lifetime.end.p0(i64 8, ptr %4) #7
  %121 = load i64, ptr %2, align 8
  ret i64 %121
}