; Function Attrs: nounwind uwtable
define dso_local i64 @toast_raw_datum_size(i64 noundef %0) local_unnamed_addr #0 {
  %2 = inttoptr i64 %0 to ptr
  %3 = load i8, ptr %2, align 1
  %4 = icmp eq i8 %3, 1
  br i1 %4, label %.lr.ph, label %tailrecurse._crit_edge

.lr.ph:                                           ; preds = %1, %tailrecurse
  %5 = phi ptr [ %.sroa.0.0.copyload, %tailrecurse ], [ %2, %1 ]
  %.tr31 = phi i64 [ %12, %tailrecurse ], [ %0, %1 ]
  %6 = getelementptr inbounds nuw i8, ptr %5, i64 1
  %7 = load i8, ptr %6, align 1
  switch i8 %7, label %15 [
    i8 18, label %8
    i8 1, label %tailrecurse
  ]

8:                                                ; preds = %.lr.ph
  %9 = getelementptr inbounds nuw i8, ptr %5, i64 2
  %.sroa.02.0.copyload = load i32, ptr %9, align 1
  %10 = sext i32 %.sroa.02.0.copyload to i64
  br label %39

tailrecurse:                                      ; preds = %.lr.ph
  %11 = getelementptr inbounds nuw i8, ptr %5, i64 2
  %.sroa.0.0.copyload = load ptr, ptr %11, align 1
  %12 = ptrtoint ptr %.sroa.0.0.copyload to i64
  %13 = load i8, ptr %.sroa.0.0.copyload, align 1
  %14 = icmp eq i8 %13, 1
  br i1 %14, label %.lr.ph, label %tailrecurse._crit_edge

15:                                               ; preds = %.lr.ph
  %16 = and i8 %7, -2
  %17 = icmp eq i8 %16, 2
  br i1 %17, label %18, label %.thread22

18:                                               ; preds = %15
  %19 = tail call ptr @DatumGetEOHP(i64 noundef %.tr31) #6
  %20 = tail call i64 @EOH_get_flat_size(ptr noundef %19) #6
  br label %39

tailrecurse._crit_edge:                           ; preds = %tailrecurse, %1
  %.lcssa26 = phi ptr [ %2, %1 ], [ %.sroa.0.0.copyload, %tailrecurse ]
  %.lcssa = phi i8 [ %3, %1 ], [ %13, %tailrecurse ]
  %21 = zext i8 %.lcssa to i32
  %22 = and i32 %21, 3
  %23 = icmp eq i32 %22, 2
  br i1 %23, label %24, label %30

24:                                               ; preds = %tailrecurse._crit_edge
  %25 = getelementptr inbounds nuw i8, ptr %.lcssa26, i64 4
  %26 = load i32, ptr %25, align 4
  %27 = and i32 %26, 1073741823
  %28 = add nuw nsw i32 %27, 4
  %29 = zext nneg i32 %28 to i64
  br label %39

30:                                               ; preds = %tailrecurse._crit_edge
  %31 = and i32 %21, 1
  %.not = icmp eq i32 %31, 0
  br i1 %.not, label %35, label %.thread22

.thread22:                                        ; preds = %15, %30
  %32 = phi i32 [ %21, %30 ], [ 1, %15 ]
  %33 = lshr i32 %32, 1
  %narrow = add nuw nsw i32 %33, 3
  %34 = zext nneg i32 %narrow to i64
  br label %39

35:                                               ; preds = %30
  %36 = load i32, ptr %.lcssa26, align 4
  %37 = lshr i32 %36, 2
  %38 = zext nneg i32 %37 to i64
  br label %39

39:                                               ; preds = %8, %18, %.thread22, %35, %24
  %.0 = phi i64 [ %10, %8 ], [ %20, %18 ], [ %29, %24 ], [ %34, %.thread22 ], [ %38, %35 ]
  ret i64 %.0
}